target datalayout = "e-m:e-p270:32:32-p271:32:32-p272:64:64-i64:64-i128:128-f80:128-n8:16:32:64-S128"
target triple = "x86_64-pc-linux-gnu"

%struct._zval_struct = type { %union._zend_value, %union.anon.3, %union.anon.6 }
%union._zend_value = type { i64 }
%union.anon.3 = type { i32 }
%union.anon.6 = type { i32 }
%struct._php_stream_ops = type { ptr, ptr, ptr, ptr, ptr, ptr, ptr, ptr, ptr }
%struct._php_stream = type { ptr, ptr, %struct._php_stream_filter_chain, %struct._php_stream_filter_chain, ptr, ptr, %struct._zval_struct, i16, [16 x i8], i32, ptr, ptr, ptr, ptr, i64, ptr, i64, i64, i64, i64, ptr }
%struct._php_stream_filter_chain = type { ptr, ptr, ptr }

@__const._php_stream_puts.newline = private unnamed_addr constant [2 x i8] c"\0A\00", align 1
@.str.1 = private unnamed_addr constant [23 x i8] c"Stream is not writable\00", align 1

; Function Attrs: nounwind uwtable
define i64 @_php_stream_write(ptr noundef %0, ptr noundef %1, i64 noundef %2) #0 {
  %4 = alloca i64, align 8
  %5 = alloca ptr, align 8
  %6 = alloca ptr, align 8
  %7 = alloca i64, align 8
  %8 = alloca i64, align 8
  store ptr %0, ptr %5, align 8
  store ptr %1, ptr %6, align 8
  store i64 %2, ptr %7, align 8
  %9 = load i64, ptr %7, align 8
  %10 = icmp eq i64 %9, 0
  br i1 %10, label %11, label %12

11:                                               ; preds = %3
  store i64 0, ptr %4, align 8
  br label %48

12:                                               ; preds = %3
  %13 = load ptr, ptr %6, align 8
  %14 = icmp ne ptr %13, null
  call void @llvm.assume(i1 %14)
  %15 = load ptr, ptr %5, align 8
  %16 = getelementptr inbounds %struct._php_stream, ptr %15, i32 0, i32 0
  %17 = load ptr, ptr %16, align 8
  %18 = getelementptr inbounds %struct._php_stream_ops, ptr %17, i32 0, i32 0
  %19 = load ptr, ptr %18, align 8
  %20 = icmp eq ptr %19, null
  br i1 %20, label %21, label %22

21:                                               ; preds = %12
  call void (ptr, i32, ptr, ...) @php_error_docref(ptr noundef null, i32 noundef 8, ptr noundef @.str.1)
  store i64 -1, ptr %4, align 8
  br label %48

22:                                               ; preds = %12
  %23 = load ptr, ptr %5, align 8
  %24 = getelementptr inbounds %struct._php_stream, ptr %23, i32 0, i32 3
  %25 = getelementptr inbounds %struct._php_stream_filter_chain, ptr %24, i32 0, i32 0
  %26 = load ptr, ptr %25, align 8
  %27 = icmp ne ptr %26, null
  br i1 %27, label %28, label %33

28:                                               ; preds = %22
  %29 = load ptr, ptr %5, align 8
  %30 = load ptr, ptr %6, align 8
  %31 = load i64, ptr %7, align 8
  %32 = call i64 @_php_stream_write_filtered(ptr noundef %29, ptr noundef %30, i64 noundef %31, i32 noundef 0)
  store i64 %32, ptr %8, align 8
  br label %38

33:                                               ; preds = %22
  %34 = load ptr, ptr %5, align 8
  %35 = load ptr, ptr %6, align 8
  %36 = load i64, ptr %7, align 8
  %37 = call i64 @_php_stream_write_buffer(ptr noundef %34, ptr noundef %35, i64 noundef %36)
  store i64 %37, ptr %8, align 8
  br label %38

38:                                               ; preds = %33, %28
  %39 = load i64, ptr %8, align 8
  %40 = icmp ne i64 %39, 0
  br i1 %40, label %41, label %46

41:                                               ; preds = %38
  %42 = load ptr, ptr %5, align 8
  %43 = getelementptr inbounds %struct._php_stream, ptr %42, i32 0, i32 9
  %44 = load i32, ptr %43, align 4
  %45 = or i32 %44, -2147483648
  store i32 %45, ptr %43, align 4
  br label %46

46:                                               ; preds = %41, %38
  %47 = load i64, ptr %8, align 8
  store i64 %47, ptr %4, align 8
  br label %48

48:                                               ; preds = %46, %21, %11
  %49 = load i64, ptr %4, align 8
  ret i64 %49
}

; Function Attrs: nounwind uwtable
define zeroext i1 @_php_stream_puts(ptr noundef %0, ptr noundef %1) #0 {
  %3 = alloca i1, align 1
  %4 = alloca ptr, align 8
  %5 = alloca ptr, align 8
  %6 = alloca i64, align 8
  %7 = alloca [2 x i8], align 1
  store ptr %0, ptr %4, align 8
  store ptr %1, ptr %5, align 8
  call void @llvm.memcpy.p0.p0.i64(ptr align 1 %7, ptr align 1 @__const._php_stream_puts.newline, i64 2, i1 false)
  %8 = load ptr, ptr %5, align 8
  %9 = call i64 @strlen(ptr noundef %8) #13
  store i64 %9, ptr %6, align 8
  %10 = load i64, ptr %6, align 8
  %11 = icmp ugt i64 %10, 0
  br i1 %11, label %12, label %24

12:                                               ; preds = %2
  %13 = load ptr, ptr %4, align 8
  %14 = load ptr, ptr %5, align 8
  %15 = load i64, ptr %6, align 8
  %16 = call i64 @_php_stream_write(ptr noundef %13, ptr noundef %14, i64 noundef %15)
  %17 = icmp sgt i64 %16, 0
  br i1 %17, label %18, label %24

18:                                               ; preds = %12
  %19 = load ptr, ptr %4, align 8
  %20 = getelementptr inbounds [2 x i8], ptr %7, i64 0, i64 0
  %21 = call i64 @_php_stream_write(ptr noundef %19, ptr noundef %20, i64 noundef 1)
  %22 = icmp sgt i64 %21, 0
  br i1 %22, label %23, label %24

23:                                               ; preds = %18
  store i1 true, ptr %3, align 1
  br label %25

24:                                               ; preds = %18, %12, %2
  store i1 false, ptr %3, align 1
  br label %25

25:                                               ; preds = %24, %23
  %26 = load i1, ptr %3, align 1
  ret i1 %26
}