; Function Attrs: nounwind uwtable
define noundef zeroext i1 @_php_stream_puts(ptr noundef %0, ptr noundef %1) local_unnamed_addr #2 {
  %3 = alloca [2 x i8], align 2
  store i16 10, ptr %3, align 2
  %4 = tail call i64 @strlen(ptr noundef nonnull dereferenceable(1) %1) #28
  %.not = icmp eq i64 %4, 0
  br i1 %.not, label %_php_stream_write.exit.thread, label %5

5:                                                ; preds = %2
  %6 = icmp ne ptr %1, null
  tail call void @llvm.assume(i1 %6)
  %7 = load ptr, ptr %0, align 8
  %8 = load ptr, ptr %7, align 8
  %9 = icmp eq ptr %8, null
  br i1 %9, label %_php_stream_write.exit.thread.sink.split, label %10

10:                                               ; preds = %5
  %11 = getelementptr inbounds i8, ptr %0, i64 40
  %12 = load ptr, ptr %11, align 8
  %.not.i = icmp eq ptr %12, null
  br i1 %.not.i, label %15, label %13

13:                                               ; preds = %10
  %14 = tail call fastcc i64 @_php_stream_write_filtered(ptr noundef nonnull %0, ptr noundef nonnull %1, i64 noundef %4, i32 noundef 0)
  br label %17

15:                                               ; preds = %10
  %16 = tail call fastcc i64 @_php_stream_write_buffer(ptr noundef nonnull %0, ptr noundef nonnull %1, i64 noundef %4)
  br label %17

17:                                               ; preds = %15, %13
  %.0.i = phi i64 [ %14, %13 ], [ %16, %15 ]
  %.not15.i = icmp eq i64 %.0.i, 0
  br i1 %.not15.i, label %_php_stream_write.exit.thread, label %_php_stream_write.exit

_php_stream_write.exit:                           ; preds = %17
  %18 = getelementptr inbounds i8, ptr %0, i64 116
  %19 = load i32, ptr %18, align 4
  %20 = or i32 %19, -2147483648
  store i32 %20, ptr %18, align 4
  %21 = icmp sgt i64 %.0.i, 0
  br i1 %21, label %22, label %_php_stream_write.exit.thread

22:                                               ; preds = %_php_stream_write.exit
  %23 = load ptr, ptr %0, align 8
  %24 = load ptr, ptr %23, align 8
  %25 = icmp eq ptr %24, null
  br i1 %25, label %_php_stream_write.exit.thread.sink.split, label %26

26:                                               ; preds = %22
  %27 = load ptr, ptr %11, align 8
  %.not.i7 = icmp eq ptr %27, null
  br i1 %.not.i7, label %30, label %28

28:                                               ; preds = %26
  %29 = call fastcc i64 @_php_stream_write_filtered(ptr noundef nonnull %0, ptr noundef nonnull %3, i64 noundef 1, i32 noundef 0)
  br label %32

30:                                               ; preds = %26
  %31 = call fastcc i64 @_php_stream_write_buffer(ptr noundef nonnull %0, ptr noundef nonnull %3, i64 noundef 1)
  br label %32

32:                                               ; preds = %30, %28
  %.0.i8 = phi i64 [ %29, %28 ], [ %31, %30 ]
  %.not15.i9 = icmp eq i64 %.0.i8, 0
  br i1 %.not15.i9, label %_php_stream_write.exit.thread, label %_php_stream_write.exit11

_php_stream_write.exit11:                         ; preds = %32
  %33 = load i32, ptr %18, align 4
  %34 = or i32 %33, -2147483648
  store i32 %34, ptr %18, align 4
  %35 = icmp sgt i64 %.0.i8, 0
  br i1 %35, label %36, label %_php_stream_write.exit.thread

_php_stream_write.exit.thread.sink.split:         ; preds = %22, %5
  tail call void (ptr, i32, ptr, ...) @php_error_docref(ptr noundef null, i32 noundef 8, ptr noundef nonnull @.str.1) #27
  br label %_php_stream_write.exit.thread

_php_stream_write.exit.thread:                    ; preds = %_php_stream_write.exit.thread.sink.split, %32, %17, %_php_stream_write.exit11, %_php_stream_write.exit, %2
  br label %36

36:                                               ; preds = %_php_stream_write.exit11, %_php_stream_write.exit.thread
  %.0 = phi i1 [ false, %_php_stream_write.exit.thread ], [ true, %_php_stream_write.exit11 ]
  ret i1 %.0
}